target datalayout = "e-m:e-p270:32:32-p271:32:32-p272:64:64-i64:64-i128:128-f80:128-n8:16:32:64-S128"
target triple = "x86_64-pc-linux-gnu"

%"class.draco::DecoderBuffer" = type <{ ptr, i64, i64, %"class.draco::DecoderBuffer::BitDecoder", i8, i8, i16, [4 x i8] }>
%"class.draco::DecoderBuffer::BitDecoder" = type { ptr, ptr, i64 }

; Function Attrs: mustprogress nounwind uwtable
define linkonce_odr noundef zeroext i1 @_ZN5draco13DecoderBuffer4PeekIhEEbPT_(ptr noundef nonnull align 8 dereferenceable(52) %0, ptr noundef %1) #5 comdat align 2 {
  %3 = alloca i1, align 1
  %4 = alloca ptr, align 8
  %5 = alloca ptr, align 8
  %6 = alloca i64, align 8
  %7 = alloca i32, align 4
  store ptr %0, ptr %4, align 8, !tbaa !16
  store ptr %1, ptr %5, align 8, !tbaa !35
  %8 = load ptr, ptr %4, align 8
  call void @llvm.lifetime.start.p0(i64 8, ptr %6) #3
  store i64 1, ptr %6, align 8, !tbaa !72
  %9 = getelementptr inbounds nuw %"class.draco::DecoderBuffer", ptr %8, i32 0, i32 1
  %10 = load i64, ptr %9, align 8, !tbaa !137
  %11 = getelementptr inbounds nuw %"class.draco::DecoderBuffer", ptr %8, i32 0, i32 2
  %12 = load i64, ptr %11, align 8, !tbaa !36
  %13 = add i64 %12, 1
  %14 = icmp slt i64 %10, %13
  br i1 %14, label %15, label %16

15:                                               ; preds = %2
  store i1 false, ptr %3, align 1
  store i32 1, ptr %7, align 4
  br label %23

16:                                               ; preds = %2
  %17 = load ptr, ptr %5, align 8, !tbaa !35
  %18 = getelementptr inbounds nuw %"class.draco::DecoderBuffer", ptr %8, i32 0, i32 0
  %19 = load ptr, ptr %18, align 8, !tbaa !138
  %20 = getelementptr inbounds nuw %"class.draco::DecoderBuffer", ptr %8, i32 0, i32 2
  %21 = load i64, ptr %20, align 8, !tbaa !36
  %22 = getelementptr inbounds i8, ptr %19, i64 %21
  call void @llvm.memcpy.p0.p0.i64(ptr align 1 %17, ptr align 1 %22, i64 1, i1 false)
  store i1 true, ptr %3, align 1
  store i32 1, ptr %7, align 4
  br label %23

23:                                               ; preds = %16, %15
  call void @llvm.lifetime.end.p0(i64 8, ptr %6) #3
  %24 = load i1, ptr %3, align 1
  ret i1 %24
}

; Function Attrs: mustprogress uwtable
define linkonce_odr noundef zeroext i1 @_ZN5draco13DecoderBuffer6DecodeIhEEbPT_(ptr noundef nonnull align 8 dereferenceable(52) %0, ptr noundef %1) #4 comdat align 2 {
  %3 = alloca i1, align 1
  %4 = alloca ptr, align 8
  %5 = alloca ptr, align 8
  store ptr %0, ptr %4, align 8, !tbaa !16
  store ptr %1, ptr %5, align 8, !tbaa !35
  %6 = load ptr, ptr %4, align 8
  %7 = load ptr, ptr %5, align 8, !tbaa !35
  %8 = call noundef zeroext i1 @_ZN5draco13DecoderBuffer4PeekIhEEbPT_(ptr noundef nonnull align 8 dereferenceable(52) %6, ptr noundef %7)
  br i1 %8, label %10, label %9

9:                                                ; preds = %2
  store i1 false, ptr %3, align 1
  br label %14

10:                                               ; preds = %2
  %11 = getelementptr inbounds nuw %"class.draco::DecoderBuffer", ptr %6, i32 0, i32 2
  %12 = load i64, ptr %11, align 8, !tbaa !36
  %13 = add i64 %12, 1
  store i64 %13, ptr %11, align 8, !tbaa !36
  store i1 true, ptr %3, align 1
  br label %14

14:                                               ; preds = %10, %9
  %15 = load i1, ptr %3, align 1
  ret i1 %15
}

; Function Attrs: mustprogress uwtable
define internal noundef zeroext i1 @_ZN5draco12_GLOBAL__N_120DecodeVarintUnsignedIjEEbiPT_PNS_13DecoderBufferE(i32 noundef %0, ptr noundef %1, ptr noundef %2) #4 {
  %4 = alloca i1, align 1
  %5 = alloca i32, align 4
  %6 = alloca ptr, align 8
  %7 = alloca ptr, align 8
  %8 = alloca i32, align 4
  %9 = alloca i32, align 4
  %10 = alloca i8, align 1
  store i32 %0, ptr %5, align 4, !tbaa !19
  store ptr %1, ptr %6, align 8, !tbaa !102
  store ptr %2, ptr %7, align 8, !tbaa !16
  call void @llvm.lifetime.start.p0(i64 4, ptr %8) #3
  store i32 5, ptr %8, align 4, !tbaa !19
  %11 = load i32, ptr %5, align 4, !tbaa !19
  %12 = icmp ugt i32 %11, 5
  br i1 %12, label %13, label %14

13:                                               ; preds = %3
  store i1 false, ptr %4, align 1
  store i32 1, ptr %9, align 4
  br label %46

14:                                               ; preds = %3
  call void @llvm.lifetime.start.p0(i64 1, ptr %10) #3
  %15 = load ptr, ptr %7, align 8, !tbaa !16
  %16 = call noundef zeroext i1 @_ZN5draco13DecoderBuffer6DecodeIhEEbPT_(ptr noundef nonnull align 8 dereferenceable(52) %15, ptr noundef %10)
  br i1 %16, label %18, label %17

17:                                               ; preds = %14
  store i1 false, ptr %4, align 1
  store i32 1, ptr %9, align 4
  br label %45

18:                                               ; preds = %14
  %19 = load i8, ptr %10, align 1, !tbaa !18
  %20 = zext i8 %19 to i32
  %21 = and i32 %20, 128
  %22 = icmp ne i32 %21, 0
  br i1 %22, label %23, label %40

23:                                               ; preds = %18
  %24 = load i32, ptr %5, align 4, !tbaa !19
  %25 = add nsw i32 %24, 1
  %26 = load ptr, ptr %6, align 8, !tbaa !102
  %27 = load ptr, ptr %7, align 8, !tbaa !16
  %28 = call noundef zeroext i1 @_ZN5draco12_GLOBAL__N_120DecodeVarintUnsignedIjEEbiPT_PNS_13DecoderBufferE(i32 noundef %25, ptr noundef %26, ptr noundef %27)
  br i1 %28, label %30, label %29

29:                                               ; preds = %23
  store i1 false, ptr %4, align 1
  store i32 1, ptr %9, align 4
  br label %45

30:                                               ; preds = %23
  %31 = load ptr, ptr %6, align 8, !tbaa !102
  %32 = load i32, ptr %31, align 4, !tbaa !19
  %33 = shl i32 %32, 7
  store i32 %33, ptr %31, align 4, !tbaa !19
  %34 = load i8, ptr %10, align 1, !tbaa !18
  %35 = zext i8 %34 to i32
  %36 = and i32 %35, 127
  %37 = load ptr, ptr %6, align 8, !tbaa !102
  %38 = load i32, ptr %37, align 4, !tbaa !19
  %39 = or i32 %38, %36
  store i32 %39, ptr %37, align 4, !tbaa !19
  br label %44

40:                                               ; preds = %18
  %41 = load i8, ptr %10, align 1, !tbaa !18
  %42 = zext i8 %41 to i32
  %43 = load ptr, ptr %6, align 8, !tbaa !102
  store i32 %42, ptr %43, align 4, !tbaa !19
  br label %44

44:                                               ; preds = %40, %30
  store i1 true, ptr %4, align 1
  store i32 1, ptr %9, align 4
  br label %45

45:                                               ; preds = %44, %29, %17
  call void @llvm.lifetime.end.p0(i64 1, ptr %10) #3
  br label %46

46:                                               ; preds = %45, %13
  call void @llvm.lifetime.end.p0(i64 4, ptr %8) #3
  %47 = load i1, ptr %4, align 1
  ret i1 %47
}