; Function Attrs: mustprogress nofree nosync nounwind memory(read, argmem: readwrite, inaccessiblemem: none) uwtable
define internal fastcc noundef zeroext i1 @_ZN5draco12_GLOBAL__N_120DecodeVarintUnsignedIjEEbiPT_PNS_13DecoderBufferE(i32 noundef range(i32 1, 7) %0, ptr noundef nonnull captures(none) %1, ptr noundef captures(none) %2) unnamed_addr #17 {
  %4 = icmp samesign ugt i32 %0, 5
  br i1 %4, label %_ZN5draco13DecoderBuffer6DecodeIhEEbPT_.exit, label %5

5:                                                ; preds = %3
  %6 = getelementptr inbounds nuw i8, ptr %2, i64 8
  %7 = load i64, ptr %6, align 8, !tbaa !15
  %8 = getelementptr inbounds nuw i8, ptr %2, i64 16
  %9 = load i64, ptr %8, align 8, !tbaa !16
  %10 = add i64 %9, 1
  %.not13 = icmp slt i64 %7, %10
  br i1 %.not13, label %_ZN5draco13DecoderBuffer6DecodeIhEEbPT_.exit, label %11

11:                                               ; preds = %5
  %12 = load ptr, ptr %2, align 8, !tbaa !17
  %13 = getelementptr inbounds i8, ptr %12, i64 %9
  %14 = load i8, ptr %13, align 1
  store i64 %10, ptr %8, align 8, !tbaa !16
  %.not = icmp sgt i8 %14, -1
  br i1 %.not, label %24, label %15

15:                                               ; preds = %11
  %16 = add nuw nsw i32 %0, 1
  %17 = tail call fastcc noundef zeroext i1 @_ZN5draco12_GLOBAL__N_120DecodeVarintUnsignedIjEEbiPT_PNS_13DecoderBufferE(i32 noundef %16, ptr noundef %1, ptr noundef nonnull %2)
  br i1 %17, label %18, label %_ZN5draco13DecoderBuffer6DecodeIhEEbPT_.exit

18:                                               ; preds = %15
  %19 = load i32, ptr %1, align 4, !tbaa !88
  %20 = shl i32 %19, 7
  %21 = and i8 %14, 127
  %22 = zext nneg i8 %21 to i32
  %23 = or disjoint i32 %20, %22
  br label %26

24:                                               ; preds = %11
  %25 = zext nneg i8 %14 to i32
  br label %26

26:                                               ; preds = %24, %18
  %storemerge = phi i32 [ %25, %24 ], [ %23, %18 ]
  store i32 %storemerge, ptr %1, align 4, !tbaa !88
  br label %_ZN5draco13DecoderBuffer6DecodeIhEEbPT_.exit

_ZN5draco13DecoderBuffer6DecodeIhEEbPT_.exit:     ; preds = %26, %15, %5, %3
  %.0 = phi i1 [ false, %3 ], [ true, %26 ], [ false, %15 ], [ false, %5 ]
  ret i1 %.0
}